target datalayout = "e-m:e-p270:32:32-p271:32:32-p272:64:64-i64:64-i128:128-f80:128-n8:16:32:64-S128"
target triple = "x86_64-pc-linux-gnu"

%struct.mbedtls_ssl_config = type { i32, i32, i8, i8, i8, i8, i8, i8, i8, i8, i8, i8, i16, i8, i8, i8, ptr, i32, ptr, ptr, ptr, ptr, ptr, ptr, ptr, ptr, ptr, ptr, ptr, ptr, ptr, ptr, ptr, ptr, ptr, ptr, ptr, i64, ptr, ptr, ptr, ptr, ptr, ptr, ptr, ptr, %struct.mbedtls_mpi, %struct.mbedtls_mpi, ptr, i64, ptr, i64, ptr, i32, i32, i32, i32, [8 x i8], i32, i32, %union.mbedtls_ssl_user_data_t, ptr, ptr }
%struct.mbedtls_mpi = type { ptr, i16, i16 }
%union.mbedtls_ssl_user_data_t = type { i64 }
%struct.mbedtls_ssl_context = type { ptr, i32, i32, i32, i32, i32, ptr, ptr, ptr, ptr, ptr, ptr, ptr, ptr, ptr, ptr, ptr, ptr, ptr, ptr, ptr, ptr, ptr, ptr, ptr, ptr, ptr, ptr, ptr, ptr, ptr, ptr, ptr, i32, i64, i64, i16, i64, i64, i64, i64, i32, i32, i8, i8, i32, i8, ptr, ptr, ptr, ptr, ptr, ptr, ptr, i32, i64, i64, [8 x i8], i16, ptr, ptr, ptr, i64, i32, i64, [12 x i8], [12 x i8], [32 x i8], i8, i8, ptr, ptr, %union.mbedtls_ssl_user_data_t }

; Function Attrs: nounwind uwtable
define hidden i32 @mbedtls_ssl_get_own_cid(ptr noundef %0, ptr noundef %1, ptr noundef %2, ptr noundef %3) #0 {
  %5 = alloca i32, align 4
  %6 = alloca ptr, align 8
  %7 = alloca ptr, align 8
  %8 = alloca ptr, align 8
  %9 = alloca ptr, align 8
  store ptr %0, ptr %6, align 8, !tbaa !27
  store ptr %1, ptr %7, align 8, !tbaa !38
  store ptr %2, ptr %8, align 8, !tbaa !29
  store ptr %3, ptr %9, align 8, !tbaa !39
  %10 = load ptr, ptr %7, align 8, !tbaa !38
  store i32 0, ptr %10, align 4, !tbaa !10
  %11 = load ptr, ptr %6, align 8, !tbaa !27
  %12 = getelementptr inbounds nuw %struct.mbedtls_ssl_context, ptr %11, i32 0, i32 0
  %13 = load ptr, ptr %12, align 8, !tbaa !30
  %14 = getelementptr inbounds nuw %struct.mbedtls_ssl_config, ptr %13, i32 0, i32 3
  %15 = load i8, ptr %14, align 1, !tbaa !35
  %16 = zext i8 %15 to i32
  %17 = icmp ne i32 %16, 1
  br i1 %17, label %18, label %19

18:                                               ; preds = %4
  store i32 -28928, ptr %5, align 4
  br label %55

19:                                               ; preds = %4
  %20 = load ptr, ptr %6, align 8, !tbaa !27
  %21 = getelementptr inbounds nuw %struct.mbedtls_ssl_context, ptr %20, i32 0, i32 68
  %22 = load i8, ptr %21, align 8, !tbaa !37
  %23 = zext i8 %22 to i32
  %24 = icmp eq i32 %23, 0
  br i1 %24, label %31, label %25

25:                                               ; preds = %19
  %26 = load ptr, ptr %6, align 8, !tbaa !27
  %27 = getelementptr inbounds nuw %struct.mbedtls_ssl_context, ptr %26, i32 0, i32 69
  %28 = load i8, ptr %27, align 1, !tbaa !36
  %29 = zext i8 %28 to i32
  %30 = icmp eq i32 %29, 0
  br i1 %30, label %31, label %32

31:                                               ; preds = %25, %19
  store i32 0, ptr %5, align 4
  br label %55

32:                                               ; preds = %25
  %33 = load ptr, ptr %9, align 8, !tbaa !39
  %34 = icmp ne ptr %33, null
  br i1 %34, label %35, label %53

35:                                               ; preds = %32
  %36 = load ptr, ptr %6, align 8, !tbaa !27
  %37 = getelementptr inbounds nuw %struct.mbedtls_ssl_context, ptr %36, i32 0, i32 68
  %38 = load i8, ptr %37, align 8, !tbaa !37
  %39 = zext i8 %38 to i64
  %40 = load ptr, ptr %9, align 8, !tbaa !39
  store i64 %39, ptr %40, align 8, !tbaa !8
  %41 = load ptr, ptr %8, align 8, !tbaa !29
  %42 = icmp ne ptr %41, null
  br i1 %42, label %43, label %52

43:                                               ; preds = %35
  %44 = load ptr, ptr %8, align 8, !tbaa !29
  %45 = load ptr, ptr %6, align 8, !tbaa !27
  %46 = getelementptr inbounds nuw %struct.mbedtls_ssl_context, ptr %45, i32 0, i32 67
  %47 = getelementptr inbounds [32 x i8], ptr %46, i64 0, i64 0
  %48 = load ptr, ptr %6, align 8, !tbaa !27
  %49 = getelementptr inbounds nuw %struct.mbedtls_ssl_context, ptr %48, i32 0, i32 68
  %50 = load i8, ptr %49, align 8, !tbaa !37
  %51 = zext i8 %50 to i64
  call void @llvm.memcpy.p0.p0.i64(ptr align 1 %44, ptr align 8 %47, i64 %51, i1 false)
  br label %52

52:                                               ; preds = %43, %35
  br label %53

53:                                               ; preds = %52, %32
  %54 = load ptr, ptr %7, align 8, !tbaa !38
  store i32 1, ptr %54, align 4, !tbaa !10
  store i32 0, ptr %5, align 4
  br label %55

55:                                               ; preds = %53, %31, %18
  %56 = load i32, ptr %5, align 4
  ret i32 %56
}