; Function Attrs: mustprogress nofree norecurse nosync nounwind willreturn memory(read, argmem: readwrite, inaccessiblemem: none) uwtable
define hidden range(i32 -28928, 1) i32 @mbedtls_ssl_get_own_cid(ptr noundef readonly captures(none) %0, ptr noundef writeonly captures(none) initializes((0, 4)) %1, ptr noundef writeonly %2, ptr noundef writeonly %3) local_unnamed_addr #4 {
  store i32 0, ptr %1, align 4, !tbaa !32
  %5 = load ptr, ptr %0, align 8, !tbaa !23
  %6 = getelementptr inbounds nuw i8, ptr %5, i64 9
  %7 = load i8, ptr %6, align 1, !tbaa !29
  %.not = icmp eq i8 %7, 1
  br i1 %.not, label %8, label %22

8:                                                ; preds = %4
  %9 = getelementptr inbounds nuw i8, ptr %0, i64 536
  %10 = load i8, ptr %9, align 8, !tbaa !31
  %11 = icmp eq i8 %10, 0
  br i1 %11, label %22, label %12

12:                                               ; preds = %8
  %13 = getelementptr inbounds nuw i8, ptr %0, i64 537
  %14 = load i8, ptr %13, align 1, !tbaa !30
  %15 = icmp eq i8 %14, 0
  br i1 %15, label %22, label %16

16:                                               ; preds = %12
  %.not14 = icmp eq ptr %3, null
  br i1 %.not14, label %21, label %17

17:                                               ; preds = %16
  %18 = zext i8 %10 to i64
  store i64 %18, ptr %3, align 8, !tbaa !33
  %.not15 = icmp eq ptr %2, null
  br i1 %.not15, label %21, label %19

19:                                               ; preds = %17
  %20 = getelementptr inbounds nuw i8, ptr %0, i64 504
  tail call void @llvm.memcpy.p0.p0.i64(ptr nonnull align 1 %2, ptr nonnull align 8 %20, i64 %18, i1 false)
  br label %21

21:                                               ; preds = %17, %19, %16
  store i32 1, ptr %1, align 4, !tbaa !32
  br label %22

22:                                               ; preds = %8, %12, %4, %21
  %.0 = phi i32 [ 0, %21 ], [ -28928, %4 ], [ 0, %12 ], [ 0, %8 ]
  ret i32 %.0
}